; Function Attrs: mustprogress uwtable
define signext range(i8 0, 2) i8 @unumf_resultNextFieldPosition_77(ptr noundef %0, ptr noundef %1, ptr noundef %2) local_unnamed_addr #1 personality ptr @__gxx_personality_v0 {
  %4 = alloca %"class.icu_77::FieldPosition", align 8
  %5 = load i32, ptr %2, align 4, !tbaa !13
  %6 = icmp slt i32 %5, 1
  br i1 %6, label %7, label %_ZN6icu_7713IcuCApiHelperI16UFormattedNumberNS_6number4impl20UFormattedNumberImplELi1178881536EE8validateEPKS1_R10UErrorCode.exit.thread

7:                                                ; preds = %3
  %8 = icmp eq ptr %0, null
  br i1 %8, label %.sink.split.i, label %9

9:                                                ; preds = %7
  %10 = getelementptr inbounds nuw i8, ptr %0, i64 16
  %11 = load i32, ptr %10, align 4, !tbaa !20
  %.not9.i = icmp eq i32 %11, 1178881536
  br i1 %.not9.i, label %_ZN6icu_7713IcuCApiHelperI16UFormattedNumberNS_6number4impl20UFormattedNumberImplELi1178881536EE8validateEPKS1_R10UErrorCode.exit, label %.sink.split.i

.sink.split.i:                                    ; preds = %9, %7
  %.sink.i = phi i32 [ 1, %7 ], [ 3, %9 ]
  store i32 %.sink.i, ptr %2, align 4, !tbaa !13
  br label %_ZN6icu_7713IcuCApiHelperI16UFormattedNumberNS_6number4impl20UFormattedNumberImplELi1178881536EE8validateEPKS1_R10UErrorCode.exit.thread

_ZN6icu_7713IcuCApiHelperI16UFormattedNumberNS_6number4impl20UFormattedNumberImplELi1178881536EE8validateEPKS1_R10UErrorCode.exit: ; preds = %9
  %12 = icmp eq ptr %1, null
  br i1 %12, label %13, label %14

13:                                               ; preds = %_ZN6icu_7713IcuCApiHelperI16UFormattedNumberNS_6number4impl20UFormattedNumberImplELi1178881536EE8validateEPKS1_R10UErrorCode.exit
  store i32 1, ptr %2, align 4, !tbaa !13
  br label %_ZN6icu_7713IcuCApiHelperI16UFormattedNumberNS_6number4impl20UFormattedNumberImplELi1178881536EE8validateEPKS1_R10UErrorCode.exit.thread

14:                                               ; preds = %_ZN6icu_7713IcuCApiHelperI16UFormattedNumberNS_6number4impl20UFormattedNumberImplELi1178881536EE8validateEPKS1_R10UErrorCode.exit
  call void @llvm.lifetime.start.p0(i64 24, ptr nonnull %4) #15
  store ptr getelementptr inbounds nuw inrange(-16, 24) (i8, ptr @_ZTVN6icu_7713FieldPositionE, i64 16), ptr %4, align 8, !tbaa !22
  %15 = getelementptr inbounds nuw i8, ptr %4, i64 8
  %16 = getelementptr inbounds nuw i8, ptr %4, i64 12
  %17 = getelementptr inbounds nuw i8, ptr %4, i64 16
  %18 = load i32, ptr %1, align 4, !tbaa !60
  store i32 %18, ptr %15, align 8, !tbaa !62
  %19 = getelementptr inbounds nuw i8, ptr %1, i64 4
  %20 = load i32, ptr %19, align 4, !tbaa !64
  store i32 %20, ptr %16, align 4, !tbaa !65
  %21 = getelementptr inbounds nuw i8, ptr %1, i64 8
  %22 = load i32, ptr %21, align 4, !tbaa !66
  store i32 %22, ptr %17, align 8, !tbaa !67
  %23 = getelementptr inbounds nuw i8, ptr %0, i64 48
  %24 = invoke noundef signext i8 @_ZNK6icu_7731FormattedValueStringBuilderImpl17nextFieldPositionERNS_13FieldPositionER10UErrorCode(ptr noundef nonnull align 8 dereferenceable(300) %23, ptr noundef nonnull align 8 dereferenceable(20) %4, ptr noundef nonnull align 4 dereferenceable(4) %2)
          to label %25 unwind label %30

25:                                               ; preds = %14
  %26 = icmp ne i8 %24, 0
  %27 = zext i1 %26 to i8
  %28 = load i32, ptr %16, align 4, !tbaa !65
  store i32 %28, ptr %19, align 4, !tbaa !64
  %29 = load i32, ptr %17, align 8, !tbaa !67
  store i32 %29, ptr %21, align 4, !tbaa !66
  call void @_ZN6icu_7713FieldPositionD1Ev(ptr noundef nonnull align 8 dereferenceable(20) %4) #15
  call void @llvm.lifetime.end.p0(i64 24, ptr nonnull %4) #15
  br label %_ZN6icu_7713IcuCApiHelperI16UFormattedNumberNS_6number4impl20UFormattedNumberImplELi1178881536EE8validateEPKS1_R10UErrorCode.exit.thread

30:                                               ; preds = %14
  %31 = landingpad { ptr, i32 }
          cleanup
  call void @_ZN6icu_7713FieldPositionD1Ev(ptr noundef nonnull align 8 dereferenceable(20) %4) #15
  call void @llvm.lifetime.end.p0(i64 24, ptr nonnull %4) #15
  resume { ptr, i32 } %31

_ZN6icu_7713IcuCApiHelperI16UFormattedNumberNS_6number4impl20UFormattedNumberImplELi1178881536EE8validateEPKS1_R10UErrorCode.exit.thread: ; preds = %.sink.split.i, %3, %25, %13
  %.0 = phi i8 [ 0, %13 ], [ %27, %25 ], [ 0, %3 ], [ 0, %.sink.split.i ]
  ret i8 %.0
}